
a.out:     file format elf64-x86-64


Disassembly of section .init:

0000000000001000 <_init>:
    1000:	f3 0f 1e fa          	endbr64 
    1004:	48 83 ec 08          	sub    $0x8,%rsp
    1008:	48 8b 05 e1 2f 00 00 	mov    0x2fe1(%rip),%rax        # 3ff0 <__gmon_start__>
    100f:	48 85 c0             	test   %rax,%rax
    1012:	74 02                	je     1016 <_init+0x16>
    1014:	ff d0                	callq  *%rax
    1016:	48 83 c4 08          	add    $0x8,%rsp
    101a:	c3                   	retq   

Disassembly of section .plt:

0000000000001020 <.plt>:
    1020:	ff 35 e2 2f 00 00    	pushq  0x2fe2(%rip)        # 4008 <_GLOBAL_OFFSET_TABLE_+0x8>
    1026:	ff 25 e4 2f 00 00    	jmpq   *0x2fe4(%rip)        # 4010 <_GLOBAL_OFFSET_TABLE_+0x10>
    102c:	0f 1f 40 00          	nopl   0x0(%rax)

0000000000001030 <printf@plt>:
    1030:	ff 25 e2 2f 00 00    	jmpq   *0x2fe2(%rip)        # 4018 <printf@GLIBC_2.2.5>
    1036:	68 00 00 00 00       	pushq  $0x0
    103b:	e9 e0 ff ff ff       	jmpq   1020 <.plt>

0000000000001040 <__stack_chk_fail@plt>:
    1040:	ff 25 da 2f 00 00    	jmpq   *0x2fda(%rip)        # 4020 <__stack_chk_fail@GLIBC_2.4>
    1046:	68 01 00 00 00       	pushq  $0x1
    104b:	e9 d0 ff ff ff       	jmpq   1020 <.plt>

Disassembly of section .text:

0000000000001050 <_start>:
    1050:	f3 0f 1e fa          	endbr64 
    1054:	31 ed                	xor    %ebp,%ebp
    1056:	49 89 d1             	mov    %rdx,%r9
    1059:	5e                   	pop    %rsi
    105a:	48 89 e2             	mov    %rsp,%rdx
    105d:	48 83 e4 f0          	and    $0xfffffffffffffff0,%rsp
    1061:	50                   	push   %rax
    1062:	54                   	push   %rsp
    1063:	4c 8d 05 e6 01 00 00 	lea    0x1e6(%rip),%r8        # 1250 <__libc_csu_fini>
    106a:	48 8d 0d 6f 01 00 00 	lea    0x16f(%rip),%rcx        # 11e0 <__libc_csu_init>
    1071:	48 8d 3d d8 00 00 00 	lea    0xd8(%rip),%rdi        # 1150 <main>
    1078:	ff 15 6a 2f 00 00    	callq  *0x2f6a(%rip)        # 3fe8 <__libc_start_main@GLIBC_2.2.5>
    107e:	f4                   	hlt    
    107f:	90                   	nop

0000000000001080 <deregister_tm_clones>:
    1080:	48 8d 3d b1 2f 00 00 	lea    0x2fb1(%rip),%rdi        # 4038 <__TMC_END__>
    1087:	48 8d 05 aa 2f 00 00 	lea    0x2faa(%rip),%rax        # 4038 <__TMC_END__>
    108e:	48 39 f8             	cmp    %rdi,%rax
    1091:	74 15                	je     10a8 <deregister_tm_clones+0x28>
    1093:	48 8b 05 46 2f 00 00 	mov    0x2f46(%rip),%rax        # 3fe0 <_ITM_deregisterTMCloneTable>
    109a:	48 85 c0             	test   %rax,%rax
    109d:	74 09                	je     10a8 <deregister_tm_clones+0x28>
    109f:	ff e0                	jmpq   *%rax
    10a1:	0f 1f 80 00 00 00 00 	nopl   0x0(%rax)
    10a8:	c3                   	retq   
    10a9:	0f 1f 80 00 00 00 00 	nopl   0x0(%rax)

00000000000010b0 <register_tm_clones>:
    10b0:	48 8d 3d 81 2f 00 00 	lea    0x2f81(%rip),%rdi        # 4038 <__TMC_END__>
    10b7:	48 8d 35 7a 2f 00 00 	lea    0x2f7a(%rip),%rsi        # 4038 <__TMC_END__>
    10be:	48 29 fe             	sub    %rdi,%rsi
    10c1:	48 89 f0             	mov    %rsi,%rax
    10c4:	48 c1 ee 3f          	shr    $0x3f,%rsi
    10c8:	48 c1 f8 03          	sar    $0x3,%rax
    10cc:	48 01 c6             	add    %rax,%rsi
    10cf:	48 d1 fe             	sar    %rsi
    10d2:	74 14                	je     10e8 <register_tm_clones+0x38>
    10d4:	48 8b 05 1d 2f 00 00 	mov    0x2f1d(%rip),%rax        # 3ff8 <_ITM_registerTMCloneTable>
    10db:	48 85 c0             	test   %rax,%rax
    10de:	74 08                	je     10e8 <register_tm_clones+0x38>
    10e0:	ff e0                	jmpq   *%rax
    10e2:	66 0f 1f 44 00 00    	nopw   0x0(%rax,%rax,1)
    10e8:	c3                   	retq   
    10e9:	0f 1f 80 00 00 00 00 	nopl   0x0(%rax)

00000000000010f0 <__do_global_dtors_aux>:
    10f0:	f3 0f 1e fa          	endbr64 
    10f4:	80 3d 3d 2f 00 00 00 	cmpb   $0x0,0x2f3d(%rip)        # 4038 <__TMC_END__>
    10fb:	75 33                	jne    1130 <__do_global_dtors_aux+0x40>
    10fd:	55                   	push   %rbp
    10fe:	48 83 3d d2 2e 00 00 	cmpq   $0x0,0x2ed2(%rip)        # 3fd8 <__cxa_finalize@GLIBC_2.2.5>
    1105:	00 
    1106:	48 89 e5             	mov    %rsp,%rbp
    1109:	74 0d                	je     1118 <__do_global_dtors_aux+0x28>
    110b:	48 8b 3d 1e 2f 00 00 	mov    0x2f1e(%rip),%rdi        # 4030 <__dso_handle>
    1112:	ff 15 c0 2e 00 00    	callq  *0x2ec0(%rip)        # 3fd8 <__cxa_finalize@GLIBC_2.2.5>
    1118:	e8 63 ff ff ff       	callq  1080 <deregister_tm_clones>
    111d:	c6 05 14 2f 00 00 01 	movb   $0x1,0x2f14(%rip)        # 4038 <__TMC_END__>
    1124:	5d                   	pop    %rbp
    1125:	c3                   	retq   
    1126:	66 2e 0f 1f 84 00 00 	nopw   %cs:0x0(%rax,%rax,1)
    112d:	00 00 00 
    1130:	c3                   	retq   
    1131:	66 66 2e 0f 1f 84 00 	data16 nopw %cs:0x0(%rax,%rax,1)
    1138:	00 00 00 00 
    113c:	0f 1f 40 00          	nopl   0x0(%rax)

0000000000001140 <frame_dummy>:
    1140:	f3 0f 1e fa          	endbr64 
    1144:	e9 67 ff ff ff       	jmpq   10b0 <register_tm_clones>
    1149:	0f 1f 80 00 00 00 00 	nopl   0x0(%rax)

0000000000001150 <main>:
    1150:	55                   	push   %rbp
    1151:	48 89 e5             	mov    %rsp,%rbp
    1154:	48 83 ec 30          	sub    $0x30,%rsp
    1158:	64 48 8b 04 25 28 00 	mov    %fs:0x28,%rax
    115f:	00 00 
    1161:	48 89 45 f8          	mov    %rax,-0x8(%rbp)
    1165:	c7 45 f0 00 00 00 00 	movl   $0x0,-0x10(%rbp)
    116c:	c7 45 f4 01 00 00 00 	movl   $0x1,-0xc(%rbp)
    1173:	48 8d 45 f4          	lea    -0xc(%rbp),%rax
    1177:	48 89 45 e8          	mov    %rax,-0x18(%rbp)
    117b:	48 89 45 e0          	mov    %rax,-0x20(%rbp)
    117f:	48 8b 45 e8          	mov    -0x18(%rbp),%rax
    1183:	8b 70 04             	mov    0x4(%rax),%esi
    1186:	48 8d 3d 77 0e 00 00 	lea    0xe77(%rip),%rdi        # 2004 <_IO_stdin_used+0x4>
    118d:	31 c9                	xor    %ecx,%ecx
    118f:	88 c8                	mov    %cl,%al
    1191:	88 4d df             	mov    %cl,-0x21(%rbp)
    1194:	e8 97 fe ff ff       	callq  1030 <printf@plt>
    1199:	48 8b 75 e0          	mov    -0x20(%rbp),%rsi
    119d:	48 8d 3d 63 0e 00 00 	lea    0xe63(%rip),%rdi        # 2007 <_IO_stdin_used+0x7>
    11a4:	8a 4d df             	mov    -0x21(%rbp),%cl
    11a7:	89 45 d8             	mov    %eax,-0x28(%rbp)
    11aa:	88 c8                	mov    %cl,%al
    11ac:	e8 7f fe ff ff       	callq  1030 <printf@plt>
    11b1:	64 48 8b 14 25 28 00 	mov    %fs:0x28,%rdx
    11b8:	00 00 
    11ba:	48 8b 75 f8          	mov    -0x8(%rbp),%rsi
    11be:	48 39 f2             	cmp    %rsi,%rdx
    11c1:	0f 85 08 00 00 00    	jne    11cf <main+0x7f>
    11c7:	31 c0                	xor    %eax,%eax
    11c9:	48 83 c4 30          	add    $0x30,%rsp
    11cd:	5d                   	pop    %rbp
    11ce:	c3                   	retq   
    11cf:	e8 6c fe ff ff       	callq  1040 <__stack_chk_fail@plt>
    11d4:	66 2e 0f 1f 84 00 00 	nopw   %cs:0x0(%rax,%rax,1)
    11db:	00 00 00 
    11de:	66 90                	xchg   %ax,%ax

00000000000011e0 <__libc_csu_init>:
    11e0:	f3 0f 1e fa          	endbr64 
    11e4:	41 57                	push   %r15
    11e6:	4c 8d 3d bb 2b 00 00 	lea    0x2bbb(%rip),%r15        # 3da8 <__frame_dummy_init_array_entry>
    11ed:	41 56                	push   %r14
    11ef:	49 89 d6             	mov    %rdx,%r14
    11f2:	41 55                	push   %r13
    11f4:	49 89 f5             	mov    %rsi,%r13
    11f7:	41 54                	push   %r12
    11f9:	41 89 fc             	mov    %edi,%r12d
    11fc:	55                   	push   %rbp
    11fd:	48 8d 2d ac 2b 00 00 	lea    0x2bac(%rip),%rbp        # 3db0 <__do_global_dtors_aux_fini_array_entry>
    1204:	53                   	push   %rbx
    1205:	4c 29 fd             	sub    %r15,%rbp
    1208:	48 83 ec 08          	sub    $0x8,%rsp
    120c:	e8 ef fd ff ff       	callq  1000 <_init>
    1211:	48 c1 fd 03          	sar    $0x3,%rbp
    1215:	74 1f                	je     1236 <__libc_csu_init+0x56>
    1217:	31 db                	xor    %ebx,%ebx
    1219:	0f 1f 80 00 00 00 00 	nopl   0x0(%rax)
    1220:	4c 89 f2             	mov    %r14,%rdx
    1223:	4c 89 ee             	mov    %r13,%rsi
    1226:	44 89 e7             	mov    %r12d,%edi
    1229:	41 ff 14 df          	callq  *(%r15,%rbx,8)
    122d:	48 83 c3 01          	add    $0x1,%rbx
    1231:	48 39 dd             	cmp    %rbx,%rbp
    1234:	75 ea                	jne    1220 <__libc_csu_init+0x40>
    1236:	48 83 c4 08          	add    $0x8,%rsp
    123a:	5b                   	pop    %rbx
    123b:	5d                   	pop    %rbp
    123c:	41 5c                	pop    %r12
    123e:	41 5d                	pop    %r13
    1240:	41 5e                	pop    %r14
    1242:	41 5f                	pop    %r15
    1244:	c3                   	retq   
    1245:	66 66 2e 0f 1f 84 00 	data16 nopw %cs:0x0(%rax,%rax,1)
    124c:	00 00 00 00 

0000000000001250 <__libc_csu_fini>:
    1250:	f3 0f 1e fa          	endbr64 
    1254:	c3                   	retq   

Disassembly of section .fini:

0000000000001258 <_fini>:
    1258:	f3 0f 1e fa          	endbr64 
    125c:	48 83 ec 08          	sub    $0x8,%rsp
    1260:	48 83 c4 08          	add    $0x8,%rsp
    1264:	c3                   	retq   
